BL51 BANKED LINKER/LOCATER V6.22                                                        07/11/2018  19:41:23  PAGE 1


BL51 BANKED LINKER/LOCATER V6.22, INVOKED BY:
C:\KEIL4FOR51\C51\BIN\BL51.EXE STARTUP.obj, main.obj TO NTCsensor RAMSIZE (256)


MEMORY MODEL: SMALL WITH FLOATING POINT ARITHMETIC


INPUT MODULES INCLUDED:
  STARTUP.obj (?C_STARTUP)
  main.obj (MAIN)
  C:\KEIL4FOR51\C51\LIB\C51FPS.LIB (?C?FPADD)
  C:\KEIL4FOR51\C51\LIB\C51FPS.LIB (?C?FPMUL)
  C:\KEIL4FOR51\C51\LIB\C51FPS.LIB (?C?FPDIV)
  C:\KEIL4FOR51\C51\LIB\C51FPS.LIB (?C?FPCMP)
  C:\KEIL4FOR51\C51\LIB\C51FPS.LIB (?C?FPNEG)
  C:\KEIL4FOR51\C51\LIB\C51FPS.LIB (?C?FCAST)
  C:\KEIL4FOR51\C51\LIB\C51FPS.LIB (?C?CASTF)
  C:\KEIL4FOR51\C51\LIB\C51FPS.LIB (?C?FPGETOPN)
  C:\KEIL4FOR51\C51\LIB\C51S.LIB (?C_INIT)
  C:\KEIL4FOR51\C51\LIB\C51S.LIB (?C?CLDPTR)
  C:\KEIL4FOR51\C51\LIB\C51S.LIB (?C?CSTPTR)
  C:\KEIL4FOR51\C51\LIB\C51S.LIB (?C?SIDIV)
  C:\KEIL4FOR51\C51\LIB\C51S.LIB (?C?SLDIV)
  C:\KEIL4FOR51\C51\LIB\C51S.LIB (?C?LNEG)
  C:\KEIL4FOR51\C51\LIB\C51S.LIB (?C?SLCMP)
  C:\KEIL4FOR51\C51\LIB\C51S.LIB (?C?LLDCODE)
  C:\KEIL4FOR51\C51\LIB\C51S.LIB (?C?LLDCODE0)
  C:\KEIL4FOR51\C51\LIB\C51S.LIB (?C?UIDIV)
  C:\KEIL4FOR51\C51\LIB\C51S.LIB (?C?ULDIV)


LINK MAP OF MODULE:  NTCsensor (?C_STARTUP)


            TYPE    BASE      LENGTH    RELOCATION   SEGMENT NAME
            -----------------------------------------------------

            * * * * * * *   D A T A   M E M O R Y   * * * * * * *
            REG     0000H     0008H     ABSOLUTE     "REG BANK 0"
            DATA    0008H     0039H     UNIT         ?DT?MAIN
            DATA    0041H     001AH     UNIT         _DATA_GROUP_
            IDATA   005BH     0001H     UNIT         ?STACK

            * * * * * * *   C O D E   M E M O R Y   * * * * * * *
            CODE    0000H     0003H     ABSOLUTE     
                    0003H     0008H                  *** GAP ***
            CODE    000BH     0003H     ABSOLUTE     
            CODE    000EH     0011H     UNIT         ?PR?TIMER0INIT?MAIN
                    001FH     0004H                  *** GAP ***
            CODE    0023H     0003H     ABSOLUTE     
            CODE    0026H     0029H     UNIT         ?PR?_DELAY_MS?MAIN
                    004FH     0004H                  *** GAP ***
            CODE    0053H     0003H     ABSOLUTE     
            CODE    0056H     0610H     UNIT         ?CO?MAIN
            CODE    0666H     05AFH     UNIT         ?C?LIB_CODE
            CODE    0C15H     02EDH     UNIT         ?PR?_LED_TRANSLATE?MAIN
            CODE    0F02H     02A2H     UNIT         ?PR?_TEMP_MEASURE_PT100?MAIN
            CODE    11A4H     0212H     UNIT         ?PR?TEMP_MEASURE?MAIN
BL51 BANKED LINKER/LOCATER V6.22                                                      07/11/2018  19:41:23  PAGE 2


            CODE    13B6H     00C0H     UNIT         ?PR?UART1_ISR?MAIN
            CODE    1476H     00A2H     UNIT         ?PR?_SEND_TRANSLATE?MAIN
            CODE    1518H     00A2H     UNIT         ?PR?MAIN?MAIN
            CODE    15BAH     009FH     UNIT         ?PR?TURN_CHECK?MAIN
            CODE    1659H     008CH     UNIT         ?C_C51STARTUP
            CODE    16E5H     0082H     UNIT         ?C_INITSEG
            CODE    1767H     007EH     UNIT         ?PR?MOOD_CHOOSE_WORK?MAIN
            CODE    17E5H     007AH     UNIT         ?PR?VOLTAGE_MEASURE?MAIN
            CODE    185FH     0071H     UNIT         ?PR?KEY_SCAN?MAIN
            CODE    18D0H     006AH     UNIT         ?PR?RECEIVE_TRANSLATE?MAIN
            CODE    193AH     006AH     UNIT         ?PR?RECEIVE_TRANSLATE_TEST?MAIN
            CODE    19A4H     0056H     UNIT         ?PR?VOLTAGE_MEASURE2_5V_AD?MAIN
            CODE    19FAH     0044H     UNIT         ?C?LDIV
            CODE    1A3EH     003CH     UNIT         ?PR?TIME0?MAIN
            CODE    1A7AH     003BH     UNIT         ?PR?INPUT2_ISR?MAIN
            CODE    1AB5H     003BH     UNIT         ?PR?SLEEP_CHECK?MAIN
            CODE    1AF0H     0035H     UNIT         ?PR?LED_CLEAN?MAIN
            CODE    1B25H     0026H     UNIT         ?PR?_GET_AD?MAIN
            CODE    1B4BH     0019H     UNIT         ?PR?KEY_CHECK?MAIN
            CODE    1B64H     0017H     UNIT         ?PR?UARTINIT?MAIN
            CODE    1B7BH     000FH     UNIT         ?PR?INIT_ADC?MAIN



OVERLAY MAP OF MODULE:   NTCsensor (?C_STARTUP)


SEGMENT                                   DATA_GROUP 
  +--> CALLED SEGMENT                   START    LENGTH
-------------------------------------------------------
?C_C51STARTUP                           -----    -----
  +--> ?PR?MAIN?MAIN
  +--> ?C_INITSEG

?PR?MAIN?MAIN                           -----    -----
  +--> ?PR?LED_CLEAN?MAIN
  +--> ?PR?INIT_ADC?MAIN
  +--> ?PR?UARTINIT?MAIN
  +--> ?PR?TIMER0INIT?MAIN
  +--> ?PR?TURN_CHECK?MAIN
  +--> ?PR?_DELAY_MS?MAIN
  +--> ?PR?SLEEP_CHECK?MAIN
  +--> ?PR?KEY_CHECK?MAIN
  +--> ?PR?MOOD_CHOOSE_WORK?MAIN
  +--> ?CO?MAIN

?PR?SLEEP_CHECK?MAIN                    -----    -----
  +--> ?PR?LED_CLEAN?MAIN
  +--> ?PR?_DELAY_MS?MAIN

?PR?MOOD_CHOOSE_WORK?MAIN               0041H    0004H
  +--> ?PR?TEMP_MEASURE?MAIN
  +--> ?PR?_SEND_TRANSLATE?MAIN
  +--> ?PR?RECEIVE_TRANSLATE_TEST?MAIN
  +--> ?PR?TURN_CHECK?MAIN
  +--> ?PR?RECEIVE_TRANSLATE?MAIN
  +--> ?PR?_LED_TRANSLATE?MAIN
BL51 BANKED LINKER/LOCATER V6.22                                                      07/11/2018  19:41:23  PAGE 3


  +--> ?PR?VOLTAGE_MEASURE?MAIN
  +--> ?PR?VOLTAGE_MEASURE2_5V_AD?MAIN
  +--> ?PR?_TEMP_MEASURE_PT100?MAIN

?PR?TEMP_MEASURE?MAIN                   0045H    0014H
  +--> ?PR?_GET_AD?MAIN
  +--> ?PR?_DELAY_MS?MAIN
  +--> ?CO?MAIN

?PR?_SEND_TRANSLATE?MAIN                0045H    0006H

?PR?_LED_TRANSLATE?MAIN                 0045H    0006H
  +--> ?CO?MAIN

?PR?VOLTAGE_MEASURE?MAIN                0045H    000AH
  +--> ?PR?_GET_AD?MAIN
  +--> ?PR?_DELAY_MS?MAIN

?PR?VOLTAGE_MEASURE2_5V_AD?MAIN         0045H    000AH
  +--> ?PR?_GET_AD?MAIN
  +--> ?PR?_DELAY_MS?MAIN

?PR?_TEMP_MEASURE_PT100?MAIN            0045H    0016H
  +--> ?PR?_GET_AD?MAIN
  +--> ?PR?_DELAY_MS?MAIN
  +--> ?CO?MAIN

*** NEW ROOT ***************************************************

?PR?INPUT2_ISR?MAIN                     -----    -----
  +--> ?PR?_DELAY_MS?MAIN

*** NEW ROOT ***************************************************

?PR?TIME0?MAIN                          -----    -----
  +--> ?PR?KEY_SCAN?MAIN



SYMBOL TABLE OF MODULE:  NTCsensor (?C_STARTUP)

  VALUE           TYPE          NAME
  ----------------------------------

  -------         MODULE        ?C_STARTUP
  C:1659H         SEGMENT       ?C_C51STARTUP
  I:005BH         SEGMENT       ?STACK
  C:0000H         PUBLIC        ?C_STARTUP
  D:00E0H         SYMBOL        ACC
  D:00F0H         SYMBOL        B
  D:0083H         SYMBOL        DPH
  D:0082H         SYMBOL        DPL
  N:0000H         SYMBOL        IBPSTACK
  N:0100H         SYMBOL        IBPSTACKTOP
  N:0080H         SYMBOL        IDATALEN
  C:165CH         SYMBOL        IDATALOOP
  N:0000H         SYMBOL        PBPSTACK
BL51 BANKED LINKER/LOCATER V6.22                                                      07/11/2018  19:41:23  PAGE 4


  N:0100H         SYMBOL        PBPSTACKTOP
  N:0000H         SYMBOL        PDATALEN
  N:0000H         SYMBOL        PDATASTART
  N:0000H         SYMBOL        PPAGE
  N:0000H         SYMBOL        PPAGEENABLE
  D:00A0H         SYMBOL        PPAGE_SFR
  D:0081H         SYMBOL        SP
  C:1659H         SYMBOL        STARTUP1
  N:0000H         SYMBOL        XBPSTACK
  N:0000H         SYMBOL        XBPSTACKTOP
  N:0000H         SYMBOL        XDATALEN
  N:0000H         SYMBOL        XDATASTART
  C:0000H         LINE#         126
  C:1659H         LINE#         133
  C:165BH         LINE#         134
  C:165CH         LINE#         135
  C:165DH         LINE#         136
  C:165FH         LINE#         185
  C:1662H         LINE#         196
  -------         ENDMOD        ?C_STARTUP

  -------         MODULE        MAIN
  C:0000H         SYMBOL        _ICE_DUMMY_
  B:00A0H.4       PUBLIC        TURN4
  D:0092H         PUBLIC        P1M0
  C:193AH         PUBLIC        Receive_Translate_test
  D:0091H         PUBLIC        P1M1
  D:0080H         PUBLIC        P0
  D:0008H         PUBLIC        Receivetemp
  D:0090H         PUBLIC        P1
  D:000BH         PUBLIC        signal
  D:00A0H         PUBLIC        P2
  D:00B0H         PUBLIC        P3
  D:00C0H         PUBLIC        P4
  D:00C8H         PUBLIC        P5
  B:00A8H.7       PUBLIC        EA
  D:00E8H         PUBLIC        P6
  C:1B25H         PUBLIC        _Get_AD
  B:00C0H.2       PUBLIC        LED1
  D:00F8H         PUBLIC        P7
  B:00C0H.4       PUBLIC        LED2
  C:17E5H         PUBLIC        Voltage_Measure
  D:00A8H         PUBLIC        IE
  D:000CH         PUBLIC        rdata
  D:000DH         PUBLIC        send_finish
  D:00BDH         PUBLIC        ADC_RES
  D:000EH         PUBLIC        rdatapointer
  B:00A8H.4       PUBLIC        ES
  D:0011H         PUBLIC        sleep_flag
  D:00B8H         PUBLIC        IP
  B:00B0H.6       PUBLIC        KEY1
  B:0098H.0       PUBLIC        RI
  C:1AF0H         PUBLIC        LED_Clean
  B:00B0H.5       PUBLIC        KEY2
  B:00B0H.4       PUBLIC        KEY3
  B:0098H.1       PUBLIC        TI
  D:0012H         PUBLIC        slave
BL51 BANKED LINKER/LOCATER V6.22                                                      07/11/2018  19:41:23  PAGE 5


  B:00C8H.5       PUBLIC        RD_WR
  C:1476H         PUBLIC        _Send_Translate
  D:0013H         PUBLIC        alarm_mood
  D:0014H         PUBLIC        datapointer
  D:00D8H         PUBLIC        CCON
  C:1518H         PUBLIC        main
  D:0017H         PUBLIC        turn1count
  D:0018H         PUBLIC        turn2count
  C:1B4BH         PUBLIC        key_check
  D:0019H         PUBLIC        turn3count
  D:001AH         PUBLIC        COMNUMBER
  C:15BAH         PUBLIC        turn_check
  D:001BH         PUBLIC        error
  D:001CH         PUBLIC        turn4count
  D:001DH         PUBLIC        loca_count
  D:001EH         PUBLIC        mood
  D:00BCH         PUBLIC        ADC_CONTR
  D:0099H         PUBLIC        SBUF
  D:0087H         PUBLIC        PCON
  D:001FH         PUBLIC        VCC_measure
  D:0023H         PUBLIC        receiveuart_count
  D:0098H         PUBLIC        SCON
  C:1B64H         PUBLIC        UartInit
  C:1A7AH         PUBLIC        input2_ISR
  D:0089H         PUBLIC        TMOD
  D:0088H         PUBLIC        TCON
  C:04F6H         PUBLIC        PT100
  D:0024H         PUBLIC        key_final
  D:0025H         PUBLIC        voltage_2_5v_ad
  D:0027H         PUBLIC        temp_result
  C:1767H         PUBLIC        mood_choose_work
  C:13B6H         PUBLIC        UART1_ISR
  C:1B7BH         PUBLIC        Init_ADC
  D:002BH         PUBLIC        PT100_error_flag
  D:008EH         PUBLIC        AUXR
  D:002CH         PUBLIC        Ledcount
  D:002DH         PUBLIC        Sendtemp
  D:0030H         PUBLIC        COMMAX
  B:00A8H.1       PUBLIC        ET0
  D:0031H         PUBLIC        sleep_flag1
  D:0032H         PUBLIC        key
  B:0088H.5       PUBLIC        TF0
  B:00A8H.3       PUBLIC        ET1
  C:000EH         PUBLIC        Timer0Init
  B:0098H.2       PUBLIC        RB8
  D:008CH         PUBLIC        TH0
  D:0033H         PUBLIC        receive_finish
  D:008DH         PUBLIC        TH1
  B:0098H.3       PUBLIC        TB8
  C:11A4H         PUBLIC        Temp_Measure
  D:008AH         PUBLIC        TL0
  D:008BH         PUBLIC        TL1
  C:185FH         PUBLIC        key_scan
  B:0098H.5       PUBLIC        SM2
  B:0088H.4       PUBLIC        TR0
  B:0088H.6       PUBLIC        TR1
  D:00C1H         PUBLIC        WDT_CONTR
BL51 BANKED LINKER/LOCATER V6.22                                                      07/11/2018  19:41:23  PAGE 6


  C:18D0H         PUBLIC        Receive_Translate
  D:0034H         PUBLIC        Showtemp
  D:009DH         PUBLIC        P1ASF
  D:0038H         PUBLIC        turn_start
  D:00BEH         PUBLIC        ADC_RESL
  C:1A3EH         PUBLIC        time0
  C:0066H         PUBLIC        NTC
  D:0039H         PUBLIC        comnumber_last
  C:0F02H         PUBLIC        _Temp_Measure_PT100
  C:0C15H         PUBLIC        _LED_Translate
  C:0056H         PUBLIC        Table
  D:003AH         PUBLIC        temp_result1
  C:19A4H         PUBLIC        Voltage_Measure2_5v_ad
  C:0035H         PUBLIC        _Delay_MS
  D:003EH         PUBLIC        keystatus
  D:008FH         PUBLIC        INT_CLKO
  D:003FH         PUBLIC        keycount
  D:0040H         PUBLIC        senduart_count
  D:00D0H         PUBLIC        PSW
  B:00A0H.7       PUBLIC        TURN1
  B:00A0H.6       PUBLIC        TURN2
  C:1AB5H         PUBLIC        sleep_check
  B:00A0H.5       PUBLIC        TURN3
  D:0094H         PUBLIC        P0M0
  C:0031H         SYMBOL        L?0172
  -------         PROC          L?0171
  -------         ENDPROC       L?0171
  C:0031H         SYMBOL        L?0172
  -------         PROC          _DELAY_MS
  D:0006H         SYMBOL        ms
  -------         DO            
  D:0004H         SYMBOL        i
  D:0005H         SYMBOL        j
  -------         ENDDO         
  C:0035H         LINE#         96
  C:0035H         LINE#         97
  C:0035H         LINE#         99
  C:0036H         LINE#         100
  C:0040H         LINE#         101
  C:0040H         LINE#         102
  C:0044H         LINE#         103
  C:0048H         LINE#         104
  C:004EH         LINE#         105
  C:004EH         LINE#         106
  -------         ENDPROC       _DELAY_MS
  -------         PROC          INIT_ADC
  C:1B7BH         LINE#         113
  C:1B7BH         LINE#         114
  C:1B7BH         LINE#         115
  C:1B7EH         LINE#         116
  C:1B81H         LINE#         117
  C:1B84H         LINE#         120
  C:1B86H         LINE#         121
  C:1B89H         LINE#         122
  -------         ENDPROC       INIT_ADC
  -------         PROC          _GET_AD
  D:0007H         SYMBOL        channel
BL51 BANKED LINKER/LOCATER V6.22                                                      07/11/2018  19:41:23  PAGE 7


  -------         DO            
  D:0006H         SYMBOL        result
  -------         ENDDO         
  C:1B25H         LINE#         129
  C:1B25H         LINE#         130
  C:1B25H         LINE#         132
  C:1B28H         LINE#         133
  C:1B2AH         LINE#         134
  C:1B2FH         LINE#         135
  C:1B31H         LINE#         136
  C:1B33H         LINE#         137
  C:1B38H         LINE#         138
  C:1B3BH         LINE#         139
  C:1B4AH         LINE#         140
  C:1B4AH         LINE#         141
  -------         ENDPROC       _GET_AD
  -------         PROC          VOLTAGE_MEASURE
  -------         DO            
  D:0045H         SYMBOL        i
  D:0082H         SYMBOL        j
  D:0047H         SYMBOL        voltage
  D:004BH         SYMBOL        voltage_AD_avg
  D:004DH         SYMBOL        voltage_std_AD
  -------         ENDDO         
  C:17E5H         LINE#         148
  C:17E5H         LINE#         149
  C:17EEH         LINE#         150
  C:17F6H         LINE#         151
  C:17FAH         LINE#         152
  C:17FEH         LINE#         153
  C:17FEH         LINE#         154
  C:17FEH         LINE#         155
  C:1807H         LINE#         156
  C:180EH         LINE#         157
  C:181AH         LINE#         158
  C:1823H         LINE#         159
  C:1832H         LINE#         160
  C:185EH         LINE#         161
  C:185EH         LINE#         162
  -------         ENDPROC       VOLTAGE_MEASURE
  -------         PROC          VOLTAGE_MEASURE2_5V_AD
  -------         DO            
  D:0045H         SYMBOL        i
  D:0082H         SYMBOL        j
  D:0047H         SYMBOL        voltage
  D:004BH         SYMBOL        voltage_AD_avg
  D:004DH         SYMBOL        voltage_std_AD
  -------         ENDDO         
  C:19A4H         LINE#         164
  C:19A4H         LINE#         165
  C:19ADH         LINE#         166
  C:19B5H         LINE#         167
  C:19B9H         LINE#         168
  C:19BDH         LINE#         169
  C:19BDH         LINE#         170
  C:19BDH         LINE#         171
  C:19C6H         LINE#         172
BL51 BANKED LINKER/LOCATER V6.22                                                      07/11/2018  19:41:23  PAGE 8


  C:19CDH         LINE#         173
  C:19D9H         LINE#         174
  C:19E2H         LINE#         175
  C:19F1H         LINE#         176
  C:19F9H         LINE#         177
  -------         ENDPROC       VOLTAGE_MEASURE2_5V_AD
  -------         PROC          TEMP_MEASURE
  -------         DO            
  D:0045H         SYMBOL        i
  D:0082H         SYMBOL        j
  D:0047H         SYMBOL        voltage_AD
  D:0049H         SYMBOL        voltage_AD_avg
  D:004DH         SYMBOL        voltage
  D:0051H         SYMBOL        resistance
  D:0055H         SYMBOL        temperature
  -------         ENDDO         
  C:11A4H         LINE#         184
  C:11A4H         LINE#         185
  C:11ADH         LINE#         186
  C:11B1H         LINE#         187
  C:11B9H         LINE#         188
  C:11C1H         LINE#         189
  C:11C9H         LINE#         190
  C:11D1H         LINE#         192
  C:11D1H         LINE#         193
  C:11D1H         LINE#         194
  C:11DAH         LINE#         195
  C:11E1H         LINE#         196
  C:11FAH         LINE#         197
  C:1203H         LINE#         199
  C:121CH         LINE#         200
  C:1230H         LINE#         201
  C:1235H         LINE#         203
  C:1238H         LINE#         204
  C:128FH         LINE#         205
  C:1294H         LINE#         206
  C:1294H         LINE#         207
  C:12EAH         LINE#         208
  C:12EAH         LINE#         209
  C:139CH         LINE#         210
  C:139CH         LINE#         212
  C:139CH         LINE#         213
  C:13ADH         LINE#         214
  C:13B5H         LINE#         215
  -------         ENDPROC       TEMP_MEASURE
  -------         PROC          _TEMP_MEASURE_PT100
  D:0045H         SYMBOL        voltage_std_ad
  -------         DO            
  D:0047H         SYMBOL        i
  D:0082H         SYMBOL        j
  D:0049H         SYMBOL        voltage_AD
  D:004BH         SYMBOL        voltage_AD_avg
  D:004FH         SYMBOL        voltage
  D:0053H         SYMBOL        temperature
  D:0057H         SYMBOL        resistance
  -------         ENDDO         
  C:0F02H         LINE#         222
BL51 BANKED LINKER/LOCATER V6.22                                                      07/11/2018  19:41:23  PAGE 9


  C:0F06H         LINE#         223
  C:0F0FH         LINE#         224
  C:0F13H         LINE#         225
  C:0F1BH         LINE#         226
  C:0F23H         LINE#         227
  C:0F2BH         LINE#         228
  C:0F33H         LINE#         229
  C:0F33H         LINE#         230
  C:0F33H         LINE#         231
  C:0F3CH         LINE#         232
  C:0F43H         LINE#         233
  C:0F5CH         LINE#         234
  C:0F65H         LINE#         236
  C:0F7EH         LINE#         237
  C:0F92H         LINE#         238
  C:0F97H         LINE#         240
  C:0F9AH         LINE#         241
  C:0FDBH         LINE#         242
  C:0FDEH         LINE#         243
  C:0FE3H         LINE#         244
  C:0FE3H         LINE#         245
  C:1061H         LINE#         246
  C:1061H         LINE#         247
  C:1185H         LINE#         248
  C:1188H         LINE#         249
  C:118AH         LINE#         250
  C:118AH         LINE#         251
  C:118AH         LINE#         252
  C:119BH         LINE#         253
  C:11A3H         LINE#         254
  -------         ENDPROC       _TEMP_MEASURE_PT100
  -------         PROC          _LED_TRANSLATE
  D:0045H         SYMBOL        dat
  -------         DO            
  D:0049H         SYMBOL        data1
  -------         ENDDO         
  C:0C15H         LINE#         261
  C:0C1DH         LINE#         262
  C:0C1DH         LINE#         263
  C:0C22H         LINE#         265
  C:0C51H         LINE#         266
  C:0C51H         LINE#         267
  C:0C6AH         LINE#         268
  C:0C7CH         LINE#         269
  C:0C7FH         LINE#         270
  C:0C91H         LINE#         271
  C:0C94H         LINE#         272
  C:0C9FH         LINE#         273
  C:0CBAH         LINE#         274
  C:0CDEH         LINE#         275
  C:0CDEH         LINE#         276
  C:0CE1H         LINE#         277
  C:0D11H         LINE#         278
  C:0D11H         LINE#         279
  C:0D2AH         LINE#         280
  C:0D3CH         LINE#         281
  C:0D3FH         LINE#         282
BL51 BANKED LINKER/LOCATER V6.22                                                      07/11/2018  19:41:23  PAGE 10


  C:0D51H         LINE#         283
  C:0D54H         LINE#         284
  C:0D5FH         LINE#         285
  C:0D78H         LINE#         286
  C:0D9EH         LINE#         287
  C:0D9EH         LINE#         288
  C:0DA1H         LINE#         289
  C:0DCFH         LINE#         290
  C:0DCFH         LINE#         291
  C:0DE8H         LINE#         292
  C:0DFDH         LINE#         293
  C:0E23H         LINE#         294
  C:0E4BH         LINE#         295
  C:0E53H         LINE#         296
  C:0E56H         LINE#         297
  C:0E6DH         LINE#         298
  C:0E6DH         LINE#         299
  C:0E91H         LINE#         300
  C:0EB7H         LINE#         301
  C:0EE8H         LINE#         302
  C:0F01H         LINE#         303
  C:0F01H         LINE#         304
  -------         ENDPROC       _LED_TRANSLATE
  -------         PROC          _SEND_TRANSLATE
  D:0045H         SYMBOL        dat
  -------         DO            
  D:0049H         SYMBOL        data1
  -------         ENDDO         
  C:1476H         LINE#         306
  C:147EH         LINE#         307
  C:147EH         LINE#         308
  C:1483H         LINE#         309
  C:14AFH         LINE#         310
  C:14AFH         LINE#         311
  C:14C8H         LINE#         312
  C:14DAH         LINE#         313
  C:14DDH         LINE#         314
  C:14EFH         LINE#         315
  C:14F2H         LINE#         316
  C:14FDH         LINE#         317
  C:150AH         LINE#         318
  C:1517H         LINE#         319
  C:1517H         LINE#         320
  -------         ENDPROC       _SEND_TRANSLATE
  -------         PROC          RECEIVE_TRANSLATE
  -------         DO            
  D:0004H         SYMBOL        data1
  -------         ENDDO         
  C:18D0H         LINE#         322
  C:18D0H         LINE#         323
  C:18D0H         LINE#         324
  C:18D8H         LINE#         325
  C:18DDH         LINE#         326
  C:18DDH         LINE#         327
  C:1907H         LINE#         328
  C:1907H         LINE#         329
  C:190CH         LINE#         330
BL51 BANKED LINKER/LOCATER V6.22                                                      07/11/2018  19:41:23  PAGE 11


  C:190CH         LINE#         331
  C:1936H         LINE#         332
  C:1939H         LINE#         333
  C:1939H         LINE#         334
  C:1939H         LINE#         335
  -------         ENDPROC       RECEIVE_TRANSLATE
  -------         PROC          RECEIVE_TRANSLATE_TEST
  -------         DO            
  D:0004H         SYMBOL        data1
  -------         ENDDO         
  C:193AH         LINE#         337
  C:193AH         LINE#         338
  C:193AH         LINE#         339
  C:1942H         LINE#         340
  C:1947H         LINE#         341
  C:1947H         LINE#         342
  C:1971H         LINE#         343
  C:1971H         LINE#         344
  C:1976H         LINE#         345
  C:1976H         LINE#         346
  C:19A0H         LINE#         347
  C:19A3H         LINE#         348
  C:19A3H         LINE#         349
  C:19A3H         LINE#         350
  -------         ENDPROC       RECEIVE_TRANSLATE_TEST
  -------         PROC          LED_CLEAN
  -------         DO            
  D:0006H         SYMBOL        ii
  -------         ENDDO         
  C:1AF0H         LINE#         356
  C:1AF0H         LINE#         357
  C:1AF3H         LINE#         358
  C:1AF6H         LINE#         359
  C:1AF9H         LINE#         360
  C:1AFCH         LINE#         361
  C:1AFFH         LINE#         362
  C:1AFFH         LINE#         363
  C:1AFFH         LINE#         364
  C:1B02H         LINE#         365
  C:1B09H         LINE#         366
  C:1B24H         LINE#         367
  -------         ENDPROC       LED_CLEAN
  -------         PROC          KEY_SCAN
  C:185FH         LINE#         374
  C:185FH         LINE#         375
  C:185FH         LINE#         376
  C:1863H         LINE#         377
  C:1863H         LINE#         378
  C:1866H         LINE#         379
  C:1869H         LINE#         380
  C:186CH         LINE#         381
  C:186FH         LINE#         382
  C:1872H         LINE#         383
  C:1875H         LINE#         384
  C:1877H         LINE#         386
  C:1877H         LINE#         387
  C:1879H         LINE#         388
BL51 BANKED LINKER/LOCATER V6.22                                                      07/11/2018  19:41:23  PAGE 12


  C:187FH         LINE#         389
  C:187FH         LINE#         390
  C:1881H         LINE#         391
  C:1886H         LINE#         392
  C:1889H         LINE#         393
  C:188CH         LINE#         394
  C:1891H         LINE#         395
  C:1894H         LINE#         396
  C:1897H         LINE#         397
  C:189CH         LINE#         398
  C:189FH         LINE#         399
  C:18A2H         LINE#         400
  C:18A5H         LINE#         401
  C:18A5H         LINE#         403
  C:18A5H         LINE#         404
  C:18AAH         LINE#         405
  C:18ADH         LINE#         406
  C:18B3H         LINE#         407
  C:18B8H         LINE#         408
  C:18BBH         LINE#         409
  C:18C1H         LINE#         410
  C:18C6H         LINE#         411
  C:18C9H         LINE#         412
  C:18CFH         LINE#         413
  -------         ENDPROC       KEY_SCAN
  -------         PROC          TURN_CHECK
  C:15BAH         LINE#         421
  C:15BAH         LINE#         422
  C:15BAH         LINE#         423
  C:15BDH         LINE#         424
  C:15C2H         LINE#         425
  C:15C5H         LINE#         426
  C:15C8H         LINE#         427
  C:15CDH         LINE#         428
  C:15D0H         LINE#         429
  C:15D3H         LINE#         430
  C:15D8H         LINE#         431
  C:15DBH         LINE#         432
  C:15DEH         LINE#         433
  C:15E3H         LINE#         434
  C:15E6H         LINE#         435
  C:15FEH         LINE#         436
  C:1602H         LINE#         437
  C:1602H         LINE#         438
  C:1609H         LINE#         439
  C:1609H         LINE#         440
  C:160BH         LINE#         441
  C:160DH         LINE#         442
  C:1610H         LINE#         443
  C:1612H         LINE#         444
  C:1615H         LINE#         445
  C:1617H         LINE#         446
  C:1619H         LINE#         447
  C:1621H         LINE#         448
  C:1629H         LINE#         449
  C:162BH         LINE#         450
  C:162BH         LINE#         451
BL51 BANKED LINKER/LOCATER V6.22                                                      07/11/2018  19:41:23  PAGE 13


  C:162FH         LINE#         452
  C:1631H         LINE#         453
  C:1633H         LINE#         454
  C:1636H         LINE#         455
  C:1638H         LINE#         456
  C:163AH         LINE#         457
  C:163CH         LINE#         458
  C:163EH         LINE#         459
  C:1646H         LINE#         460
  C:164EH         LINE#         461
  C:1650H         LINE#         462
  C:1652H         LINE#         463
  C:1655H         LINE#         464
  C:1655H         LINE#         465
  C:1655H         LINE#         466
  C:1658H         LINE#         467
  -------         ENDPROC       TURN_CHECK
  -------         PROC          TIMER0INIT
  C:000EH         LINE#         473
  C:000EH         LINE#         474
  C:000EH         LINE#         475
  C:0011H         LINE#         476
  C:0014H         LINE#         478
  C:0017H         LINE#         479
  C:001AH         LINE#         480
  C:001CH         LINE#         481
  C:001EH         LINE#         482
  -------         ENDPROC       TIMER0INIT
  -------         PROC          INPUT2_ISR
  C:1A7AH         LINE#         489
  C:1A8BH         LINE#         491
  C:1A92H         LINE#         492
  C:1A95H         LINE#         493
  C:1A95H         LINE#         494
  C:1A99H         LINE#         495
  C:1A9EH         LINE#         496
  C:1AA3H         LINE#         497
  C:1AA6H         LINE#         498
  C:1AA6H         LINE#         499
  -------         ENDPROC       INPUT2_ISR
  -------         PROC          TIME0
  C:1A3EH         LINE#         507
  C:1A49H         LINE#         509
  C:1A50H         LINE#         510
  C:1A53H         LINE#         511
  C:1A53H         LINE#         512
  C:1A56H         LINE#         513
  C:1A5EH         LINE#         514
  C:1A6EH         LINE#         516
  C:1A71H         LINE#         517
  -------         ENDPROC       TIME0
  -------         PROC          UARTINIT
  C:1B64H         LINE#         524
  C:1B64H         LINE#         525
  C:1B64H         LINE#         526
  C:1B67H         LINE#         527
  C:1B6AH         LINE#         528
BL51 BANKED LINKER/LOCATER V6.22                                                      07/11/2018  19:41:23  PAGE 14


  C:1B6DH         LINE#         529
  C:1B70H         LINE#         530
  C:1B73H         LINE#         531
  C:1B76H         LINE#         532
  C:1B78H         LINE#         533
  C:1B7AH         LINE#         534
  -------         ENDPROC       UARTINIT
  -------         PROC          UART1_ISR
  C:13B6H         LINE#         540
  C:13C7H         LINE#         542
  C:13CAH         LINE#         543
  C:13CAH         LINE#         544
  C:13CCH         LINE#         545
  C:13CFH         LINE#         546
  C:13D9H         LINE#         547
  C:13D9H         LINE#         549
  C:13DCH         LINE#         550
  C:13DCH         LINE#         552
  C:13E1H         LINE#         553
  C:13E8H         LINE#         555
  C:13ECH         LINE#         556
  C:13EEH         LINE#         558
  C:13EEH         LINE#         559
  C:13F9H         LINE#         560
  C:1404H         LINE#         561
  C:1406H         LINE#         563
  C:140CH         LINE#         564
  C:140CH         LINE#         565
  C:140EH         LINE#         566
  C:1416H         LINE#         567
  C:1418H         LINE#         568
  C:141BH         LINE#         569
  C:141BH         LINE#         570
  C:141BH         LINE#         571
  C:141BH         LINE#         572
  C:141DH         LINE#         573
  C:1420H         LINE#         574
  C:1420H         LINE#         575
  C:1422H         LINE#         576
  C:1424H         LINE#         577
  C:1428H         LINE#         578
  C:1428H         LINE#         579
  C:1433H         LINE#         580
  C:143EH         LINE#         581
  C:1440H         LINE#         582
  C:1445H         LINE#         583
  C:1445H         LINE#         584
  C:144EH         LINE#         585
  C:1451H         LINE#         586
  C:1454H         LINE#         588
  C:1456H         LINE#         589
  C:1458H         LINE#         590
  C:145AH         LINE#         591
  C:145CH         LINE#         592
  C:145FH         LINE#         593
  C:1464H         LINE#         594
  C:1467H         LINE#         595
BL51 BANKED LINKER/LOCATER V6.22                                                      07/11/2018  19:41:23  PAGE 15


  C:1467H         LINE#         596
  C:1467H         LINE#         597
  C:1467H         LINE#         598
  -------         ENDPROC       UART1_ISR
  -------         PROC          MOOD_CHOOSE_WORK
  -------         DO            
  D:0041H         SYMBOL        i
  D:0043H         SYMBOL        a
  -------         ENDDO         
  C:1767H         LINE#         604
  C:1767H         LINE#         605
  C:1767H         LINE#         606
  C:176CH         LINE#         607
  C:1770H         LINE#         608
  C:1774H         LINE#         609
  C:1774H         LINE#         610
  C:1778H         LINE#         611
  C:1778H         LINE#         612
  C:1783H         LINE#         614
  C:1786H         LINE#         615
  C:1791H         LINE#         616
  C:1791H         LINE#         617
  C:1793H         LINE#         619
  C:1793H         LINE#         620
  C:1795H         LINE#         621
  C:1797H         LINE#         622
  C:179BH         LINE#         623
  C:179EH         LINE#         624
  C:17A3H         LINE#         625
  C:17A6H         LINE#         626
  C:17B1H         LINE#         627
  C:17B4H         LINE#         628
  C:17B4H         LINE#         629
  C:17B4H         LINE#         630
  C:17B9H         LINE#         631
  C:17B9H         LINE#         632
  C:17C4H         LINE#         633
  C:17C7H         LINE#         634
  C:17C7H         LINE#         635
  C:17CCH         LINE#         636
  C:17CCH         LINE#         637
  C:17D6H         LINE#         638
  C:17E1H         LINE#         639
  C:17E4H         LINE#         640
  C:17E4H         LINE#         641
  -------         ENDPROC       MOOD_CHOOSE_WORK
  -------         PROC          SLEEP_CHECK
  C:1AB5H         LINE#         648
  C:1AB5H         LINE#         649
  C:1AB5H         LINE#         650
  C:1AC1H         LINE#         651
  C:1AC1H         LINE#         652
  C:1AC6H         LINE#         653
  C:1ACBH         LINE#         654
  C:1ACEH         LINE#         655
  C:1AE1H         LINE#         656
  C:1AE4H         LINE#         657
BL51 BANKED LINKER/LOCATER V6.22                                                      07/11/2018  19:41:23  PAGE 16


  C:1AE7H         LINE#         658
  C:1AEFH         LINE#         659
  C:1AEFH         LINE#         660
  -------         ENDPROC       SLEEP_CHECK
  -------         PROC          KEY_CHECK
  C:1B4BH         LINE#         667
  C:1B4BH         LINE#         668
  C:1B4BH         LINE#         669
  C:1B4BH         LINE#         670
  C:1B4BH         LINE#         671
  C:1B50H         LINE#         672
  C:1B59H         LINE#         673
  C:1B5DH         LINE#         674
  C:1B60H         LINE#         675
  C:1B60H         LINE#         676
  C:1B60H         LINE#         677
  C:1B60H         LINE#         678
  C:1B63H         LINE#         679
  -------         ENDPROC       KEY_CHECK
  -------         PROC          MAIN
  C:1518H         LINE#         681
  C:1518H         LINE#         682
  C:1518H         LINE#         683
  C:151BH         LINE#         684
  C:1524H         LINE#         685
  C:152DH         LINE#         686
  C:1530H         LINE#         687
  C:1536H         LINE#         688
  C:153EH         LINE#         689
  C:1541H         LINE#         690
  C:1544H         LINE#         691
  C:1547H         LINE#         692
  C:1549H         LINE#         693
  C:154CH         LINE#         694
  C:154EH         LINE#         695
  C:1551H         LINE#         696
  C:1554H         LINE#         697
  C:1556H         LINE#         698
  C:1559H         LINE#         699
  C:1560H         LINE#         700
  C:1560H         LINE#         701
  C:1560H         LINE#         702
  C:1563H         LINE#         703
  C:1566H         LINE#         704
  C:1569H         LINE#         705
  C:156CH         LINE#         707
  C:1571H         LINE#         708
  C:1571H         LINE#         709
  C:1574H         LINE#         710
  C:1577H         LINE#         711
  C:157AH         LINE#         712
  C:1581H         LINE#         713
  C:1581H         LINE#         714
  C:1586H         LINE#         715
  C:1586H         LINE#         716
  C:1589H         LINE#         717
  C:158CH         LINE#         718
BL51 BANKED LINKER/LOCATER V6.22                                                      07/11/2018  19:41:23  PAGE 17


  C:158FH         LINE#         719
  C:1596H         LINE#         720
  C:1596H         LINE#         721
  C:159BH         LINE#         722
  C:159BH         LINE#         723
  C:159EH         LINE#         724
  C:15A1H         LINE#         725
  C:15A4H         LINE#         726
  C:15ABH         LINE#         727
  C:15AEH         LINE#         728
  C:15AEH         LINE#         729
  C:15B5H         LINE#         730
  C:15B8H         LINE#         731
  -------         ENDPROC       MAIN
  -------         ENDMOD        MAIN

  -------         MODULE        ?C?FPADD
  C:066DH         PUBLIC        ?C?FPADD
  C:0669H         PUBLIC        ?C?FPSUB
  -------         ENDMOD        ?C?FPADD

  -------         MODULE        ?C?FPMUL
  C:075EH         PUBLIC        ?C?FPMUL
  -------         ENDMOD        ?C?FPMUL

  -------         MODULE        ?C?FPDIV
  C:0867H         PUBLIC        ?C?FPDIV
  -------         ENDMOD        ?C?FPDIV

  -------         MODULE        ?C?FPCMP
  C:0906H         PUBLIC        ?C?FPCMP
  C:0904H         PUBLIC        ?C?FPCMP3
  -------         ENDMOD        ?C?FPCMP

  -------         MODULE        ?C?FPNEG
  C:097DH         PUBLIC        ?C?FPNEG
  -------         ENDMOD        ?C?FPNEG

  -------         MODULE        ?C?FCAST
  C:0998H         PUBLIC        ?C?FCASTC
  C:0993H         PUBLIC        ?C?FCASTI
  C:098EH         PUBLIC        ?C?FCASTL
  -------         ENDMOD        ?C?FCAST

  -------         MODULE        ?C?CASTF
  C:09CCH         PUBLIC        ?C?CASTF
  -------         ENDMOD        ?C?CASTF

  -------         MODULE        ?C?CLDPTR
  C:0A4DH         PUBLIC        ?C?CLDPTR
  -------         ENDMOD        ?C?CLDPTR

  -------         MODULE        ?C?CSTPTR
  C:0A66H         PUBLIC        ?C?CSTPTR
  -------         ENDMOD        ?C?CSTPTR

  -------         MODULE        ?C?SIDIV
BL51 BANKED LINKER/LOCATER V6.22                                                      07/11/2018  19:41:23  PAGE 18


  C:0A78H         PUBLIC        ?C?SIDIV
  -------         ENDMOD        ?C?SIDIV

  -------         MODULE        ?C?SLDIV
  C:19FAH         PUBLIC        ?C?SLDIV
  -------         ENDMOD        ?C?SLDIV

  -------         MODULE        ?C?LNEG
  C:0AAEH         PUBLIC        ?C?LNEG
  -------         ENDMOD        ?C?LNEG

  -------         MODULE        ?C?SLCMP
  C:0ABCH         PUBLIC        ?C?SLCMP
  -------         ENDMOD        ?C?SLCMP

  -------         MODULE        ?C?LLDCODE
  C:0AD2H         PUBLIC        ?C?LLDCODE
  -------         ENDMOD        ?C?LLDCODE

  -------         MODULE        ?C?LLDCODE0
  C:0AE2H         PUBLIC        ?C?LLDCODE0
  -------         ENDMOD        ?C?LLDCODE0

  -------         MODULE        ?C?UIDIV
  C:0AF2H         PUBLIC        ?C?UIDIV
  -------         ENDMOD        ?C?UIDIV

  -------         MODULE        ?C?ULDIV
  C:0B83H         PUBLIC        ?C?ULDIV
  -------         ENDMOD        ?C?ULDIV

Program Size: data=92.0 xdata=0 code=7034
LINK/LOCATE RUN COMPLETE.  0 WARNING(S),  0 ERROR(S)
